; Function Attrs: mustprogress uwtable
define void @_ZN32pxrInternal_v0_24__pxrReserved__37HdsiMaterialPrimvarTransferSceneIndex3NewERKNS_8TfRefPtrINS_16HdSceneIndexBaseEEE(ptr dead_on_unwind noalias nocapture writable writeonly sret(%"class.pxrInternal_v0_24__pxrReserved__::TfRefPtr.12") align 8 %0, ptr noundef nonnull align 8 dereferenceable(8) %1) local_unnamed_addr #0 align 2 personality ptr @__gxx_personality_v0 {
  %3 = tail call noalias noundef nonnull dereferenceable(152) ptr @_Znwm(i64 noundef 152) #22
  invoke void @_ZN32pxrInternal_v0_24__pxrReserved__37HdsiMaterialPrimvarTransferSceneIndexC1ERKNS_8TfRefPtrINS_16HdSceneIndexBaseEEE(ptr noundef nonnull align 8 dereferenceable(152) %3, ptr noundef nonnull align 8 dereferenceable(8) %1)
          to label %4 unwind label %5

4:                                                ; preds = %2
  store ptr %3, ptr %0, align 8, !alias.scope !4
  ret void

5:                                                ; preds = %2
  %6 = landingpad { ptr, i32 }
          cleanup
  tail call void @_ZdlPvm(ptr noundef nonnull %3, i64 noundef 152) #21
  resume { ptr, i32 } %6
}